target datalayout = "e-m:e-p270:32:32-p271:32:32-p272:64:64-i64:64-i128:128-f80:128-n8:16:32:64-S128"
target triple = "x86_64-unknown-linux-gnu"

%"class.zmq::encoder_base_t" = type { %"struct.zmq::i_encoder", ptr, i64, { i64, i64 }, i8, i64, ptr, ptr }
%"struct.zmq::i_encoder" = type { ptr }
%"class.zmq::v1_encoder_t" = type <{ %"class.zmq::encoder_base_t", [11 x i8], [5 x i8] }>
%"class.zmq::msg_t" = type { %union.anon }
%union.anon = type { %struct.anon }
%struct.anon = type { ptr, [34 x i8], i8, i8, i32, %"union.zmq::msg_t::group_t" }
%"union.zmq::msg_t::group_t" = type { %struct.anon.1 }
%struct.anon.1 = type { i8, ptr }

; Function Attrs: mustprogress nounwind uwtable
define linkonce_odr void @_ZN3zmq14encoder_base_tINS_12v1_encoder_tEE9next_stepEPvmMS1_FvvEb(ptr noundef nonnull align 8 dereferenceable(72) %this, ptr noundef %write_pos_, i64 noundef %to_write_, i64 %next_.coerce0, i64 %next_.coerce1, i1 noundef zeroext %new_msg_flag_) #1 comdat align 2 {
entry:
  %next_ = alloca { i64, i64 }, align 8
  %this.addr = alloca ptr, align 8
  %write_pos_.addr = alloca ptr, align 8
  %to_write_.addr = alloca i64, align 8
  %next_.addr = alloca { i64, i64 }, align 8
  %new_msg_flag_.addr = alloca i8, align 1
  %0 = getelementptr inbounds { i64, i64 }, ptr %next_, i32 0, i32 0
  store i64 %next_.coerce0, ptr %0, align 8
  %1 = getelementptr inbounds { i64, i64 }, ptr %next_, i32 0, i32 1
  store i64 %next_.coerce1, ptr %1, align 8
  %next_1 = load { i64, i64 }, ptr %next_, align 8
  store ptr %this, ptr %this.addr, align 8
  store ptr %write_pos_, ptr %write_pos_.addr, align 8
  store i64 %to_write_, ptr %to_write_.addr, align 8
  store { i64, i64 } %next_1, ptr %next_.addr, align 8
  %frombool = zext i1 %new_msg_flag_ to i8
  store i8 %frombool, ptr %new_msg_flag_.addr, align 1
  %this2 = load ptr, ptr %this.addr, align 8
  %2 = load ptr, ptr %write_pos_.addr, align 8
  %_write_pos = getelementptr inbounds %"class.zmq::encoder_base_t", ptr %this2, i32 0, i32 1
  store ptr %2, ptr %_write_pos, align 8
  %3 = load i64, ptr %to_write_.addr, align 8
  %_to_write = getelementptr inbounds %"class.zmq::encoder_base_t", ptr %this2, i32 0, i32 2
  store i64 %3, ptr %_to_write, align 8
  %4 = load { i64, i64 }, ptr %next_.addr, align 8
  %_next = getelementptr inbounds %"class.zmq::encoder_base_t", ptr %this2, i32 0, i32 3
  store { i64, i64 } %4, ptr %_next, align 8
  %5 = load i8, ptr %new_msg_flag_.addr, align 1
  %tobool = trunc i8 %5 to i1
  %_new_msg_flag = getelementptr inbounds %"class.zmq::encoder_base_t", ptr %this2, i32 0, i32 4
  %frombool3 = zext i1 %tobool to i8
  store i8 %frombool3, ptr %_new_msg_flag, align 8
  ret void
}

; Function Attrs: mustprogress nounwind uwtable
define linkonce_odr void @_ZN3zmq10put_uint64EPhm(ptr noundef %buffer_, i64 noundef %value_) #1 comdat {
entry:
  %buffer_.addr = alloca ptr, align 8
  %value_.addr = alloca i64, align 8
  store ptr %buffer_, ptr %buffer_.addr, align 8
  store i64 %value_, ptr %value_.addr, align 8
  %0 = load i64, ptr %value_.addr, align 8
  %shr = lshr i64 %0, 56
  %and = and i64 %shr, 255
  %conv = trunc i64 %and to i8
  %1 = load ptr, ptr %buffer_.addr, align 8
  %arrayidx = getelementptr inbounds i8, ptr %1, i64 0
  store i8 %conv, ptr %arrayidx, align 1
  %2 = load i64, ptr %value_.addr, align 8
  %shr1 = lshr i64 %2, 48
  %and2 = and i64 %shr1, 255
  %conv3 = trunc i64 %and2 to i8
  %3 = load ptr, ptr %buffer_.addr, align 8
  %arrayidx4 = getelementptr inbounds i8, ptr %3, i64 1
  store i8 %conv3, ptr %arrayidx4, align 1
  %4 = load i64, ptr %value_.addr, align 8
  %shr5 = lshr i64 %4, 40
  %and6 = and i64 %shr5, 255
  %conv7 = trunc i64 %and6 to i8
  %5 = load ptr, ptr %buffer_.addr, align 8
  %arrayidx8 = getelementptr inbounds i8, ptr %5, i64 2
  store i8 %conv7, ptr %arrayidx8, align 1
  %6 = load i64, ptr %value_.addr, align 8
  %shr9 = lshr i64 %6, 32
  %and10 = and i64 %shr9, 255
  %conv11 = trunc i64 %and10 to i8
  %7 = load ptr, ptr %buffer_.addr, align 8
  %arrayidx12 = getelementptr inbounds i8, ptr %7, i64 3
  store i8 %conv11, ptr %arrayidx12, align 1
  %8 = load i64, ptr %value_.addr, align 8
  %shr13 = lshr i64 %8, 24
  %and14 = and i64 %shr13, 255
  %conv15 = trunc i64 %and14 to i8
  %9 = load ptr, ptr %buffer_.addr, align 8
  %arrayidx16 = getelementptr inbounds i8, ptr %9, i64 4
  store i8 %conv15, ptr %arrayidx16, align 1
  %10 = load i64, ptr %value_.addr, align 8
  %shr17 = lshr i64 %10, 16
  %and18 = and i64 %shr17, 255
  %conv19 = trunc i64 %and18 to i8
  %11 = load ptr, ptr %buffer_.addr, align 8
  %arrayidx20 = getelementptr inbounds i8, ptr %11, i64 5
  store i8 %conv19, ptr %arrayidx20, align 1
  %12 = load i64, ptr %value_.addr, align 8
  %shr21 = lshr i64 %12, 8
  %and22 = and i64 %shr21, 255
  %conv23 = trunc i64 %and22 to i8
  %13 = load ptr, ptr %buffer_.addr, align 8
  %arrayidx24 = getelementptr inbounds i8, ptr %13, i64 6
  store i8 %conv23, ptr %arrayidx24, align 1
  %14 = load i64, ptr %value_.addr, align 8
  %and25 = and i64 %14, 255
  %conv26 = trunc i64 %and25 to i8
  %15 = load ptr, ptr %buffer_.addr, align 8
  %arrayidx27 = getelementptr inbounds i8, ptr %15, i64 7
  store i8 %conv26, ptr %arrayidx27, align 1
  ret void
}

; Function Attrs: mustprogress nounwind uwtable
define linkonce_odr noundef zeroext i1 @_ZNK3zmq5msg_t9is_cancelEv(ptr noundef nonnull align 8 dereferenceable(64) %this) #1 comdat align 2 {
entry:
  %this.addr = alloca ptr, align 8
  store ptr %this, ptr %this.addr, align 8
  %this1 = load ptr, ptr %this.addr, align 8
  %_u = getelementptr inbounds %"class.zmq::msg_t", ptr %this1, i32 0, i32 0
  %flags = getelementptr inbounds %struct.anon, ptr %_u, i32 0, i32 3
  %0 = load i8, ptr %flags, align 1
  %conv = zext i8 %0 to i32
  %and = and i32 %conv, 28
  %cmp = icmp eq i32 %and, 16
  ret i1 %cmp
}

; Function Attrs: mustprogress nounwind uwtable
define linkonce_odr noundef zeroext i1 @_ZNK3zmq5msg_t12is_subscribeEv(ptr noundef nonnull align 8 dereferenceable(64) %this) #1 comdat align 2 {
entry:
  %this.addr = alloca ptr, align 8
  store ptr %this, ptr %this.addr, align 8
  %this1 = load ptr, ptr %this.addr, align 8
  %_u = getelementptr inbounds %"class.zmq::msg_t", ptr %this1, i32 0, i32 0
  %flags = getelementptr inbounds %struct.anon, ptr %_u, i32 0, i32 3
  %0 = load i8, ptr %flags, align 1
  %conv = zext i8 %0 to i32
  %and = and i32 %conv, 28
  %cmp = icmp eq i32 %and, 12
  ret i1 %cmp
}

; Function Attrs: mustprogress nounwind uwtable
define linkonce_odr noundef ptr @_ZN3zmq14encoder_base_tINS_12v1_encoder_tEE11in_progressEv(ptr noundef nonnull align 8 dereferenceable(72) %this) #1 comdat align 2 {
entry:
  %this.addr = alloca ptr, align 8
  store ptr %this, ptr %this.addr, align 8
  %this1 = load ptr, ptr %this.addr, align 8
  %_in_progress = getelementptr inbounds %"class.zmq::encoder_base_t", ptr %this1, i32 0, i32 7
  %0 = load ptr, ptr %_in_progress, align 8
  ret ptr %0
}

; Function Attrs: mustprogress uwtable
define void @_ZN3zmq12v1_encoder_t13message_readyEv(ptr noundef nonnull align 8 dereferenceable(88) %this) #0 align 2 {
entry:
  %this.addr = alloca ptr, align 8
  %header_size = alloca i64, align 8
  %size = alloca i64, align 8
  %coerce = alloca { i64, i64 }, align 8
  store ptr %this, ptr %this.addr, align 8
  %this1 = load ptr, ptr %this.addr, align 8
  store i64 2, ptr %header_size, align 8
  %call = call noundef ptr @_ZN3zmq14encoder_base_tINS_12v1_encoder_tEE11in_progressEv(ptr noundef nonnull align 8 dereferenceable(72) %this1)
  %call2 = call noundef i64 @_ZNK3zmq5msg_t4sizeEv(ptr noundef nonnull align 8 dereferenceable(64) %call)
  store i64 %call2, ptr %size, align 8
  %0 = load i64, ptr %size, align 8
  %inc = add i64 %0, 1
  store i64 %inc, ptr %size, align 8
  %call3 = call noundef ptr @_ZN3zmq14encoder_base_tINS_12v1_encoder_tEE11in_progressEv(ptr noundef nonnull align 8 dereferenceable(72) %this1)
  %call4 = call noundef zeroext i1 @_ZNK3zmq5msg_t12is_subscribeEv(ptr noundef nonnull align 8 dereferenceable(64) %call3)
  br i1 %call4, label %if.then, label %lor.lhs.false

lor.lhs.false:                                    ; preds = %entry
  %call5 = call noundef ptr @_ZN3zmq14encoder_base_tINS_12v1_encoder_tEE11in_progressEv(ptr noundef nonnull align 8 dereferenceable(72) %this1)
  %call6 = call noundef zeroext i1 @_ZNK3zmq5msg_t9is_cancelEv(ptr noundef nonnull align 8 dereferenceable(64) %call5)
  br i1 %call6, label %if.then, label %if.end

if.then:                                          ; preds = %lor.lhs.false, %entry
  %1 = load i64, ptr %size, align 8
  %inc7 = add i64 %1, 1
  store i64 %inc7, ptr %size, align 8
  br label %if.end

if.end:                                           ; preds = %if.then, %lor.lhs.false
  %2 = load i64, ptr %size, align 8
  %cmp = icmp ult i64 %2, 255
  br i1 %cmp, label %if.then8, label %if.else

if.then8:                                         ; preds = %if.end
  %3 = load i64, ptr %size, align 8
  %conv = trunc i64 %3 to i8
  %_tmpbuf = getelementptr inbounds %"class.zmq::v1_encoder_t", ptr %this1, i32 0, i32 1
  %arrayidx = getelementptr inbounds [11 x i8], ptr %_tmpbuf, i64 0, i64 0
  store i8 %conv, ptr %arrayidx, align 8
  %call9 = call noundef ptr @_ZN3zmq14encoder_base_tINS_12v1_encoder_tEE11in_progressEv(ptr noundef nonnull align 8 dereferenceable(72) %this1)
  %call10 = call noundef zeroext i8 @_ZNK3zmq5msg_t5flagsEv(ptr noundef nonnull align 8 dereferenceable(64) %call9)
  %conv11 = zext i8 %call10 to i32
  %and = and i32 %conv11, 1
  %conv12 = trunc i32 %and to i8
  %_tmpbuf13 = getelementptr inbounds %"class.zmq::v1_encoder_t", ptr %this1, i32 0, i32 1
  %arrayidx14 = getelementptr inbounds [11 x i8], ptr %_tmpbuf13, i64 0, i64 1
  store i8 %conv12, ptr %arrayidx14, align 1
  br label %if.end25

if.else:                                          ; preds = %if.end
  %_tmpbuf15 = getelementptr inbounds %"class.zmq::v1_encoder_t", ptr %this1, i32 0, i32 1
  %arrayidx16 = getelementptr inbounds [11 x i8], ptr %_tmpbuf15, i64 0, i64 0
  store i8 -1, ptr %arrayidx16, align 8
  %_tmpbuf17 = getelementptr inbounds %"class.zmq::v1_encoder_t", ptr %this1, i32 0, i32 1
  %arraydecay = getelementptr inbounds [11 x i8], ptr %_tmpbuf17, i64 0, i64 0
  %add.ptr = getelementptr inbounds i8, ptr %arraydecay, i64 1
  %4 = load i64, ptr %size, align 8
  call void @_ZN3zmq10put_uint64EPhm(ptr noundef %add.ptr, i64 noundef %4)
  %call18 = call noundef ptr @_ZN3zmq14encoder_base_tINS_12v1_encoder_tEE11in_progressEv(ptr noundef nonnull align 8 dereferenceable(72) %this1)
  %call19 = call noundef zeroext i8 @_ZNK3zmq5msg_t5flagsEv(ptr noundef nonnull align 8 dereferenceable(64) %call18)
  %conv20 = zext i8 %call19 to i32
  %and21 = and i32 %conv20, 1
  %conv22 = trunc i32 %and21 to i8
  %_tmpbuf23 = getelementptr inbounds %"class.zmq::v1_encoder_t", ptr %this1, i32 0, i32 1
  %arrayidx24 = getelementptr inbounds [11 x i8], ptr %_tmpbuf23, i64 0, i64 9
  store i8 %conv22, ptr %arrayidx24, align 1
  store i64 10, ptr %header_size, align 8
  br label %if.end25

if.end25:                                         ; preds = %if.else, %if.then8
  %call26 = call noundef ptr @_ZN3zmq14encoder_base_tINS_12v1_encoder_tEE11in_progressEv(ptr noundef nonnull align 8 dereferenceable(72) %this1)
  %call27 = call noundef zeroext i1 @_ZNK3zmq5msg_t12is_subscribeEv(ptr noundef nonnull align 8 dereferenceable(64) %call26)
  br i1 %call27, label %if.then28, label %if.else32

if.then28:                                        ; preds = %if.end25
  %_tmpbuf29 = getelementptr inbounds %"class.zmq::v1_encoder_t", ptr %this1, i32 0, i32 1
  %5 = load i64, ptr %header_size, align 8
  %inc30 = add i64 %5, 1
  store i64 %inc30, ptr %header_size, align 8
  %arrayidx31 = getelementptr inbounds [11 x i8], ptr %_tmpbuf29, i64 0, i64 %5
  store i8 1, ptr %arrayidx31, align 1
  br label %if.end40

if.else32:                                        ; preds = %if.end25
  %call33 = call noundef ptr @_ZN3zmq14encoder_base_tINS_12v1_encoder_tEE11in_progressEv(ptr noundef nonnull align 8 dereferenceable(72) %this1)
  %call34 = call noundef zeroext i1 @_ZNK3zmq5msg_t9is_cancelEv(ptr noundef nonnull align 8 dereferenceable(64) %call33)
  br i1 %call34, label %if.then35, label %if.end39

if.then35:                                        ; preds = %if.else32
  %_tmpbuf36 = getelementptr inbounds %"class.zmq::v1_encoder_t", ptr %this1, i32 0, i32 1
  %6 = load i64, ptr %header_size, align 8
  %inc37 = add i64 %6, 1
  store i64 %inc37, ptr %header_size, align 8
  %arrayidx38 = getelementptr inbounds [11 x i8], ptr %_tmpbuf36, i64 0, i64 %6
  store i8 0, ptr %arrayidx38, align 1
  br label %if.end39

if.end39:                                         ; preds = %if.then35, %if.else32
  br label %if.end40

if.end40:                                         ; preds = %if.end39, %if.then28
  %_tmpbuf41 = getelementptr inbounds %"class.zmq::v1_encoder_t", ptr %this1, i32 0, i32 1
  %arraydecay42 = getelementptr inbounds [11 x i8], ptr %_tmpbuf41, i64 0, i64 0
  %7 = load i64, ptr %header_size, align 8
  store { i64, i64 } { i64 ptrtoint (ptr @_ZN3zmq12v1_encoder_t10size_readyEv to i64), i64 0 }, ptr %coerce, align 8
  %8 = getelementptr inbounds { i64, i64 }, ptr %coerce, i32 0, i32 0
  %9 = load i64, ptr %8, align 8
  %10 = getelementptr inbounds { i64, i64 }, ptr %coerce, i32 0, i32 1
  %11 = load i64, ptr %10, align 8
  call void @_ZN3zmq14encoder_base_tINS_12v1_encoder_tEE9next_stepEPvmMS1_FvvEb(ptr noundef nonnull align 8 dereferenceable(72) %this1, ptr noundef %arraydecay42, i64 noundef %7, i64 %9, i64 %11, i1 noundef zeroext false)
  ret void
}