; Function Attrs: mustprogress uwtable
define void @_ZN3zmq12v1_encoder_t13message_readyEv(ptr noundef nonnull align 8 dereferenceable(88) %this) #0 align 2 {
entry:
  %_in_progress.i = getelementptr inbounds i8, ptr %this, i64 64
  %0 = load ptr, ptr %_in_progress.i, align 8
  %call2 = tail call noundef i64 @_ZNK3zmq5msg_t4sizeEv(ptr noundef nonnull align 8 dereferenceable(64) %0)
  %1 = load ptr, ptr %_in_progress.i, align 8
  %flags.i = getelementptr inbounds i8, ptr %1, i64 43
  %2 = load i8, ptr %flags.i, align 1
  %3 = and i8 %2, 28
  %cmp.i = icmp eq i8 %3, 12
  %cmp.i10 = icmp eq i8 %3, 16
  %or.cond = or i1 %cmp.i, %cmp.i10
  %size.0.v = select i1 %or.cond, i64 2, i64 1
  %size.0 = add i64 %size.0.v, %call2
  %cmp = icmp ult i64 %size.0, 255
  br i1 %cmp, label %if.end25, label %if.else

if.else:                                          ; preds = %entry
  %_tmpbuf15 = getelementptr inbounds i8, ptr %this, i64 72
  store i8 -1, ptr %_tmpbuf15, align 8
  %add.ptr = getelementptr inbounds i8, ptr %this, i64 73
  %shr.i = lshr i64 %size.0, 56
  %conv.i = trunc i64 %shr.i to i8
  store i8 %conv.i, ptr %add.ptr, align 1
  %shr1.i = lshr i64 %size.0, 48
  %conv3.i = trunc i64 %shr1.i to i8
  %arrayidx4.i = getelementptr inbounds i8, ptr %this, i64 74
  store i8 %conv3.i, ptr %arrayidx4.i, align 2
  %shr5.i = lshr i64 %size.0, 40
  %conv7.i = trunc i64 %shr5.i to i8
  %arrayidx8.i = getelementptr inbounds i8, ptr %this, i64 75
  store i8 %conv7.i, ptr %arrayidx8.i, align 1
  %shr9.i = lshr i64 %size.0, 32
  %conv11.i = trunc i64 %shr9.i to i8
  %arrayidx12.i = getelementptr inbounds i8, ptr %this, i64 76
  store i8 %conv11.i, ptr %arrayidx12.i, align 4
  %shr13.i = lshr i64 %size.0, 24
  %conv15.i = trunc i64 %shr13.i to i8
  %arrayidx16.i = getelementptr inbounds i8, ptr %this, i64 77
  store i8 %conv15.i, ptr %arrayidx16.i, align 1
  %shr17.i = lshr i64 %size.0, 16
  %conv19.i = trunc i64 %shr17.i to i8
  %arrayidx20.i = getelementptr inbounds i8, ptr %this, i64 78
  store i8 %conv19.i, ptr %arrayidx20.i, align 2
  %shr21.i = lshr i64 %size.0, 8
  %conv23.i = trunc i64 %shr21.i to i8
  %arrayidx24.i = getelementptr inbounds i8, ptr %this, i64 79
  store i8 %conv23.i, ptr %arrayidx24.i, align 1
  br label %if.end25

if.end25:                                         ; preds = %entry, %if.else
  %.sink20 = phi i64 [ 80, %if.else ], [ 72, %entry ]
  %.sink19 = phi i64 [ 81, %if.else ], [ 73, %entry ]
  %header_size.0 = phi i64 [ 10, %if.else ], [ 2, %entry ]
  %conv26.i = trunc i64 %size.0 to i8
  %arrayidx27.i = getelementptr inbounds i8, ptr %this, i64 %.sink20
  store i8 %conv26.i, ptr %arrayidx27.i, align 8
  %call19 = tail call noundef zeroext i8 @_ZNK3zmq5msg_t5flagsEv(ptr noundef nonnull align 8 dereferenceable(64) %1)
  %4 = and i8 %call19, 1
  %arrayidx24 = getelementptr inbounds i8, ptr %this, i64 %.sink19
  store i8 %4, ptr %arrayidx24, align 1
  %5 = load ptr, ptr %_in_progress.i, align 8
  %flags.i14 = getelementptr inbounds i8, ptr %5, i64 43
  %6 = load i8, ptr %flags.i14, align 1
  %7 = and i8 %6, 28
  switch i8 %7, label %if.end40 [
    i8 12, label %if.end40.sink.split
    i8 16, label %if.then35
  ]

if.then35:                                        ; preds = %if.end25
  br label %if.end40.sink.split

if.end40.sink.split:                              ; preds = %if.end25, %if.then35
  %.sink = phi i8 [ 0, %if.then35 ], [ 1, %if.end25 ]
  %_tmpbuf36 = getelementptr inbounds i8, ptr %this, i64 72
  %inc37 = or disjoint i64 %header_size.0, 1
  %arrayidx38 = getelementptr inbounds [11 x i8], ptr %_tmpbuf36, i64 0, i64 %header_size.0
  store i8 %.sink, ptr %arrayidx38, align 2
  br label %if.end40

if.end40:                                         ; preds = %if.end40.sink.split, %if.end25
  %header_size.1 = phi i64 [ %header_size.0, %if.end25 ], [ %inc37, %if.end40.sink.split ]
  %_tmpbuf41 = getelementptr inbounds i8, ptr %this, i64 72
  %_write_pos.i = getelementptr inbounds i8, ptr %this, i64 8
  store ptr %_tmpbuf41, ptr %_write_pos.i, align 8
  %_to_write.i = getelementptr inbounds i8, ptr %this, i64 16
  store i64 %header_size.1, ptr %_to_write.i, align 8
  %_next.i = getelementptr inbounds i8, ptr %this, i64 24
  store i64 ptrtoint (ptr @_ZN3zmq12v1_encoder_t10size_readyEv to i64), ptr %_next.i, align 8
  %_next.repack1.i = getelementptr inbounds i8, ptr %this, i64 32
  store i64 0, ptr %_next.repack1.i, align 8
  %_new_msg_flag.i = getelementptr inbounds i8, ptr %this, i64 40
  store i8 0, ptr %_new_msg_flag.i, align 8
  ret void
}